target datalayout = "e-m:e-p270:32:32-p271:32:32-p272:64:64-i64:64-i128:128-f80:128-n8:16:32:64-S128"
target triple = "x86_64-pc-linux-gnu"

%struct.mi_commit_mask_s = type { [16 x i64] }
%struct.mi_page_s = type { i32, i32, i8, i16, i16, %union.mi_page_flags_s, i8, ptr, i32, i32, ptr, i64, i64, ptr, ptr, [1 x i64] }
%union.mi_page_flags_s = type { i8 }
%struct.mi_segment_s = type { i64, i8, i8, i8, i8, i64, %struct.mi_commit_mask_s, %struct.mi_commit_mask_s, ptr, ptr, i64, i64, i64, i64, i64, i64, i32, i64, i64, [1024 x %struct.mi_page_s] }

; Function Attrs: nounwind uwtable
define internal ptr @mi_segment_huge_page_alloc(i64 noundef %0, ptr noundef %1, ptr noundef %2) #0 {
  %4 = alloca ptr, align 8
  %5 = alloca i64, align 8
  %6 = alloca ptr, align 8
  %7 = alloca ptr, align 8
  %8 = alloca ptr, align 8
  %9 = alloca ptr, align 8
  %10 = alloca i32, align 4
  store i64 %0, ptr %5, align 8, !tbaa !8
  store ptr %1, ptr %6, align 8, !tbaa !31
  store ptr %2, ptr %7, align 8, !tbaa !81
  call void @llvm.lifetime.start.p0(i64 8, ptr %8) #7
  store ptr null, ptr %8, align 8, !tbaa !21
  call void @llvm.lifetime.start.p0(i64 8, ptr %9) #7
  %11 = load i64, ptr %5, align 8, !tbaa !8
  %12 = load ptr, ptr %6, align 8, !tbaa !31
  %13 = load ptr, ptr %7, align 8, !tbaa !81
  %14 = call ptr @mi_segment_alloc(i64 noundef %11, ptr noundef %12, ptr noundef %13, ptr noundef %8)
  store ptr %14, ptr %9, align 8, !tbaa !19
  %15 = load ptr, ptr %9, align 8, !tbaa !19
  %16 = icmp eq ptr %15, null
  br i1 %16, label %20, label %17

17:                                               ; preds = %3
  %18 = load ptr, ptr %8, align 8, !tbaa !21
  %19 = icmp eq ptr %18, null
  br i1 %19, label %20, label %21

20:                                               ; preds = %17, %3
  store ptr null, ptr %4, align 8
  store i32 1, ptr %10, align 4
  br label %25

21:                                               ; preds = %17
  %22 = load ptr, ptr %9, align 8, !tbaa !19
  %23 = getelementptr inbounds nuw %struct.mi_segment_s, ptr %22, i32 0, i32 17
  store atomic i64 0, ptr %23 seq_cst, align 8, !tbaa !50
  %24 = load ptr, ptr %8, align 8, !tbaa !21
  store ptr %24, ptr %4, align 8
  store i32 1, ptr %10, align 4
  br label %25

25:                                               ; preds = %21, %20
  call void @llvm.lifetime.end.p0(i64 8, ptr %9) #7
  call void @llvm.lifetime.end.p0(i64 8, ptr %8) #7
  %26 = load ptr, ptr %4, align 8
  ret ptr %26
}

; Function Attrs: nounwind uwtable
define hidden ptr @_mi_segment_page_alloc(ptr noundef %0, i64 noundef %1, ptr noundef %2, ptr noundef %3) #0 {
  %5 = alloca ptr, align 8
  %6 = alloca i64, align 8
  %7 = alloca ptr, align 8
  %8 = alloca ptr, align 8
  %9 = alloca ptr, align 8
  store ptr %0, ptr %5, align 8, !tbaa !53
  store i64 %1, ptr %6, align 8, !tbaa !8
  store ptr %2, ptr %7, align 8, !tbaa !31
  store ptr %3, ptr %8, align 8, !tbaa !81
  call void @llvm.lifetime.start.p0(i64 8, ptr %9) #7
  %10 = load i64, ptr %6, align 8, !tbaa !8
  %11 = icmp ule i64 %10, 16384
  br i1 %11, label %12, label %19

12:                                               ; preds = %4
  %13 = load ptr, ptr %5, align 8, !tbaa !53
  %14 = load i64, ptr %6, align 8, !tbaa !8
  %15 = load i64, ptr %6, align 8, !tbaa !8
  %16 = load ptr, ptr %7, align 8, !tbaa !31
  %17 = load ptr, ptr %8, align 8, !tbaa !81
  %18 = call ptr @mi_segments_page_alloc(ptr noundef %13, i32 noundef 0, i64 noundef %14, i64 noundef %15, ptr noundef %16, ptr noundef %17)
  store ptr %18, ptr %9, align 8, !tbaa !21
  br label %45

19:                                               ; preds = %4
  %20 = load i64, ptr %6, align 8, !tbaa !8
  %21 = icmp ule i64 %20, 131072
  br i1 %21, label %22, label %28

22:                                               ; preds = %19
  %23 = load ptr, ptr %5, align 8, !tbaa !53
  %24 = load i64, ptr %6, align 8, !tbaa !8
  %25 = load ptr, ptr %7, align 8, !tbaa !31
  %26 = load ptr, ptr %8, align 8, !tbaa !81
  %27 = call ptr @mi_segments_page_alloc(ptr noundef %23, i32 noundef 1, i64 noundef 524288, i64 noundef %24, ptr noundef %25, ptr noundef %26)
  store ptr %27, ptr %9, align 8, !tbaa !21
  br label %44

28:                                               ; preds = %19
  %29 = load i64, ptr %6, align 8, !tbaa !8
  %30 = icmp ule i64 %29, 33554432
  br i1 %30, label %31, label %38

31:                                               ; preds = %28
  %32 = load ptr, ptr %5, align 8, !tbaa !53
  %33 = load i64, ptr %6, align 8, !tbaa !8
  %34 = load i64, ptr %6, align 8, !tbaa !8
  %35 = load ptr, ptr %7, align 8, !tbaa !31
  %36 = load ptr, ptr %8, align 8, !tbaa !81
  %37 = call ptr @mi_segments_page_alloc(ptr noundef %32, i32 noundef 2, i64 noundef %33, i64 noundef %34, ptr noundef %35, ptr noundef %36)
  store ptr %37, ptr %9, align 8, !tbaa !21
  br label %43

38:                                               ; preds = %28
  %39 = load i64, ptr %6, align 8, !tbaa !8
  %40 = load ptr, ptr %7, align 8, !tbaa !31
  %41 = load ptr, ptr %8, align 8, !tbaa !81
  %42 = call ptr @mi_segment_huge_page_alloc(i64 noundef %39, ptr noundef %40, ptr noundef %41)
  store ptr %42, ptr %9, align 8, !tbaa !21
  br label %43

43:                                               ; preds = %38, %31
  br label %44

44:                                               ; preds = %43, %22
  br label %45

45:                                               ; preds = %44, %12
  %46 = load ptr, ptr %9, align 8, !tbaa !21
  call void @llvm.lifetime.end.p0(i64 8, ptr %9) #7
  ret ptr %46
}