; Function Attrs: nounwind uwtable
define hidden ptr @_mi_segment_page_alloc(ptr noundef %0, i64 noundef %1, ptr noundef captures(address) %2, ptr noundef %3) local_unnamed_addr #5 {
  %5 = alloca ptr, align 8
  %6 = icmp ult i64 %1, 16385
  br i1 %6, label %7, label %9

7:                                                ; preds = %4
  %8 = tail call fastcc ptr @mi_segments_page_alloc(ptr noundef %0, i64 noundef %1, i64 noundef %1, ptr noundef %2, ptr noundef %3)
  br label %24

9:                                                ; preds = %4
  %10 = icmp ult i64 %1, 131073
  br i1 %10, label %11, label %13

11:                                               ; preds = %9
  %12 = tail call fastcc ptr @mi_segments_page_alloc(ptr noundef %0, i64 noundef 524288, i64 noundef %1, ptr noundef %2, ptr noundef %3)
  br label %24

13:                                               ; preds = %9
  %14 = icmp ult i64 %1, 33554433
  br i1 %14, label %15, label %17

15:                                               ; preds = %13
  %16 = tail call fastcc ptr @mi_segments_page_alloc(ptr noundef %0, i64 noundef %1, i64 noundef %1, ptr noundef %2, ptr noundef %3)
  br label %24

17:                                               ; preds = %13
  call void @llvm.lifetime.start.p0(i64 8, ptr nonnull %5) #9
  store ptr null, ptr %5, align 8, !tbaa !86
  %18 = call fastcc ptr @mi_segment_alloc(i64 noundef range(i64 33554433, 0) %1, ptr noundef %2, ptr noundef %3, ptr noundef nonnull %5)
  %19 = icmp eq ptr %18, null
  %20 = load ptr, ptr %5, align 8
  %21 = icmp eq ptr %20, null
  %or.cond.i = select i1 %19, i1 true, i1 %21
  br i1 %or.cond.i, label %mi_segment_huge_page_alloc.exit, label %22

22:                                               ; preds = %17
  %23 = getelementptr inbounds nuw i8, ptr %18, i64 352
  store atomic i64 0, ptr %23 seq_cst, align 8, !tbaa !46
  br label %mi_segment_huge_page_alloc.exit

mi_segment_huge_page_alloc.exit:                  ; preds = %17, %22
  %.0.i = phi ptr [ %20, %22 ], [ null, %17 ]
  call void @llvm.lifetime.end.p0(i64 8, ptr nonnull %5) #9
  br label %24

24:                                               ; preds = %11, %mi_segment_huge_page_alloc.exit, %15, %7
  %.0 = phi ptr [ %8, %7 ], [ %12, %11 ], [ %16, %15 ], [ %.0.i, %mi_segment_huge_page_alloc.exit ]
  ret ptr %.0
}